target datalayout = "e-m:e-p270:32:32-p271:32:32-p272:64:64-i64:64-i128:128-f80:128-n8:16:32:64-S128"
target triple = "x86_64-pc-linux-gnu"

%struct.PLpgSQL_execstate = type { ptr, ptr, ptr, i64, i8, i32, i32, i8, i8, i8, i8, ptr, ptr, ptr, ptr, ptr, ptr, ptr, i32, i32, ptr, ptr, ptr, ptr, ptr, ptr, ptr, ptr, ptr, ptr, i64, ptr, ptr, ptr, ptr, ptr }
%struct.PLpgSQL_var = type { i32, i32, ptr, i32, i8, i8, ptr, ptr, ptr, i32, i32, i64, i8, i8, i32 }
%struct.ExprContext = type { i32, ptr, ptr, ptr, ptr, ptr, ptr, ptr, ptr, ptr, i64, i8, i64, i8, ptr, ptr, ptr, ptr }
%struct.ParamListInfoData = type { ptr, ptr, ptr, ptr, ptr, ptr, ptr, i32, [0 x %struct.ParamExternData] }
%struct.ParamExternData = type { i64, i8, i16, i32 }
%struct.ExprEvalStep = type { i64, ptr, ptr, %union.anon.1 }
%union.anon.1 = type { %struct.anon.26 }
%struct.anon.26 = type { ptr, ptr, i32, i32, ptr, ptr }
%struct.anon.15 = type { ptr, ptr, ptr, i32, i32 }

; Function Attrs: nounwind uwtable
define internal void @plpgsql_param_eval_var_ro(ptr noundef %0, ptr noundef %1, ptr noundef %2) #0 {
  %4 = alloca ptr, align 8
  %5 = alloca ptr, align 8
  %6 = alloca ptr, align 8
  %7 = alloca ptr, align 8
  %8 = alloca ptr, align 8
  %9 = alloca i32, align 4
  %10 = alloca ptr, align 8
  store ptr %0, ptr %4, align 8
  store ptr %1, ptr %5, align 8
  store ptr %2, ptr %6, align 8
  call void @llvm.lifetime.start.p0(i64 8, ptr %7) #12
  call void @llvm.lifetime.start.p0(i64 8, ptr %8) #12
  call void @llvm.lifetime.start.p0(i64 4, ptr %9) #12
  %11 = load ptr, ptr %5, align 8
  %12 = getelementptr inbounds nuw %struct.ExprEvalStep, ptr %11, i32 0, i32 3
  %13 = getelementptr inbounds nuw %struct.anon.15, ptr %12, i32 0, i32 3
  %14 = load i32, ptr %13, align 8
  %15 = sub i32 %14, 1
  store i32 %15, ptr %9, align 4
  call void @llvm.lifetime.start.p0(i64 8, ptr %10) #12
  %16 = load ptr, ptr %6, align 8
  %17 = getelementptr inbounds nuw %struct.ExprContext, ptr %16, i32 0, i32 7
  %18 = load ptr, ptr %17, align 8
  store ptr %18, ptr %7, align 8
  %19 = load ptr, ptr %7, align 8
  %20 = getelementptr inbounds nuw %struct.ParamListInfoData, ptr %19, i32 0, i32 1
  %21 = load ptr, ptr %20, align 8
  store ptr %21, ptr %8, align 8
  %22 = load ptr, ptr %8, align 8
  %23 = getelementptr inbounds nuw %struct.PLpgSQL_execstate, ptr %22, i32 0, i32 20
  %24 = load ptr, ptr %23, align 8
  %25 = load i32, ptr %9, align 4
  %26 = sext i32 %25 to i64
  %27 = getelementptr inbounds ptr, ptr %24, i64 %26
  %28 = load ptr, ptr %27, align 8
  store ptr %28, ptr %10, align 8
  %29 = load ptr, ptr %10, align 8
  %30 = getelementptr inbounds nuw %struct.PLpgSQL_var, ptr %29, i32 0, i32 12
  %31 = load i8, ptr %30, align 8, !range !3, !noundef !4
  %32 = trunc i8 %31 to i1
  br i1 %32, label %33, label %37

33:                                               ; preds = %3
  %34 = load ptr, ptr %10, align 8
  %35 = getelementptr inbounds nuw %struct.PLpgSQL_var, ptr %34, i32 0, i32 11
  %36 = load i64, ptr %35, align 8
  br label %42

37:                                               ; preds = %3
  %38 = load ptr, ptr %10, align 8
  %39 = getelementptr inbounds nuw %struct.PLpgSQL_var, ptr %38, i32 0, i32 11
  %40 = load i64, ptr %39, align 8
  %41 = call i64 @MakeExpandedObjectReadOnlyInternal(i64 noundef %40)
  br label %42

42:                                               ; preds = %37, %33
  %43 = phi i64 [ %36, %33 ], [ %41, %37 ]
  %44 = load ptr, ptr %5, align 8
  %45 = getelementptr inbounds nuw %struct.ExprEvalStep, ptr %44, i32 0, i32 1
  %46 = load ptr, ptr %45, align 8
  store i64 %43, ptr %46, align 8
  %47 = load ptr, ptr %10, align 8
  %48 = getelementptr inbounds nuw %struct.PLpgSQL_var, ptr %47, i32 0, i32 12
  %49 = load i8, ptr %48, align 8, !range !3, !noundef !4
  %50 = trunc i8 %49 to i1
  %51 = load ptr, ptr %5, align 8
  %52 = getelementptr inbounds nuw %struct.ExprEvalStep, ptr %51, i32 0, i32 2
  %53 = load ptr, ptr %52, align 8
  %54 = zext i1 %50 to i8
  store i8 %54, ptr %53, align 1
  call void @llvm.lifetime.end.p0(i64 8, ptr %10) #12
  call void @llvm.lifetime.end.p0(i64 4, ptr %9) #12
  call void @llvm.lifetime.end.p0(i64 8, ptr %8) #12
  call void @llvm.lifetime.end.p0(i64 8, ptr %7) #12
  ret void
}