; Function Attrs: nounwind uwtable
define internal void @plpgsql_param_eval_var_ro(ptr readnone captures(none) %0, ptr noundef readonly captures(none) %1, ptr noundef readonly captures(none) %2) #0 {
  %4 = getelementptr inbounds nuw i8, ptr %1, i64 48
  %5 = load i32, ptr %4, align 8
  %6 = add i32 %5, -1
  %7 = getelementptr inbounds nuw i8, ptr %2, i64 56
  %8 = load ptr, ptr %7, align 8
  %9 = getelementptr inbounds nuw i8, ptr %8, i64 8
  %10 = load ptr, ptr %9, align 8
  %11 = getelementptr inbounds nuw i8, ptr %10, i64 112
  %12 = load ptr, ptr %11, align 8
  %13 = sext i32 %6 to i64
  %14 = getelementptr inbounds ptr, ptr %12, i64 %13
  %15 = load ptr, ptr %14, align 8
  %16 = getelementptr inbounds nuw i8, ptr %15, i64 64
  %17 = load i8, ptr %16, align 8, !range !3, !noundef !4
  %18 = trunc nuw i8 %17 to i1
  %19 = getelementptr inbounds nuw i8, ptr %15, i64 56
  %20 = load i64, ptr %19, align 8
  br i1 %18, label %23, label %21

21:                                               ; preds = %3
  %22 = tail call i64 @MakeExpandedObjectReadOnlyInternal(i64 noundef %20) #12
  br label %23

23:                                               ; preds = %3, %21
  %24 = phi i64 [ %22, %21 ], [ %20, %3 ]
  %25 = getelementptr inbounds nuw i8, ptr %1, i64 8
  %26 = load ptr, ptr %25, align 8
  store i64 %24, ptr %26, align 8
  %27 = load i8, ptr %16, align 8, !range !3, !noundef !4
  %28 = getelementptr inbounds nuw i8, ptr %1, i64 16
  %29 = load ptr, ptr %28, align 8
  store i8 %27, ptr %29, align 1
  ret void
}